; Function Attrs: nounwind uwtable
define ptr @l_Lean_PrettyPrinter_Delaborator_SubExpr_withNaryArg___rarg(ptr noundef %0, ptr noundef %1, ptr noundef %2, ptr noundef %3, ptr noundef %4) #0 {
  %6 = getelementptr inbounds nuw i8, ptr %0, i64 16
  %7 = load ptr, ptr %6, align 8, !tbaa !5
  %8 = ptrtoint ptr %7 to i64
  %9 = and i64 %8, 1
  %.not = icmp eq i64 %9, 0
  br i1 %.not, label %10, label %lean_inc.exit25

10:                                               ; preds = %5
  %.val.i = load i32, ptr %7, align 4, !tbaa !9
  %11 = icmp sgt i32 %.val.i, 0
  br i1 %11, label %12, label %14, !prof !12

12:                                               ; preds = %10
  %13 = add nuw i32 %.val.i, 1
  store i32 %13, ptr %7, align 4, !tbaa !9
  br label %lean_inc.exit25

14:                                               ; preds = %10
  %.not.i = icmp eq i32 %.val.i, 0
  br i1 %.not.i, label %lean_inc.exit25, label %15

15:                                               ; preds = %14
  tail call void @lean_inc_ref_cold(ptr noundef nonnull %7) #5
  br label %lean_inc.exit25

lean_inc.exit25:                                  ; preds = %15, %14, %12, %5
  %16 = ptrtoint ptr %1 to i64
  %17 = and i64 %16, 1
  %.not36 = icmp eq i64 %17, 0
  br i1 %.not36, label %18, label %lean_inc.exit24

18:                                               ; preds = %lean_inc.exit25
  %.val.i26 = load i32, ptr %1, align 4, !tbaa !9
  %19 = icmp sgt i32 %.val.i26, 0
  br i1 %19, label %20, label %22, !prof !12

20:                                               ; preds = %18
  %21 = add nuw i32 %.val.i26, 1
  store i32 %21, ptr %1, align 4, !tbaa !9
  br label %lean_inc.exit24

22:                                               ; preds = %18
  %.not.i27 = icmp eq i32 %.val.i26, 0
  br i1 %.not.i27, label %lean_inc.exit24, label %23

23:                                               ; preds = %22
  tail call void @lean_inc_ref_cold(ptr noundef nonnull %1) #5
  br label %lean_inc.exit24

lean_inc.exit24:                                  ; preds = %23, %22, %20, %lean_inc.exit25
  %24 = ptrtoint ptr %0 to i64
  %25 = and i64 %24, 1
  %.not37 = icmp eq i64 %25, 0
  br i1 %.not37, label %26, label %lean_inc.exit23

26:                                               ; preds = %lean_inc.exit24
  %.val.i29 = load i32, ptr %0, align 4, !tbaa !9
  %27 = icmp sgt i32 %.val.i29, 0
  br i1 %27, label %28, label %30, !prof !12

28:                                               ; preds = %26
  %29 = add nuw i32 %.val.i29, 1
  store i32 %29, ptr %0, align 4, !tbaa !9
  br label %lean_inc.exit23

30:                                               ; preds = %26
  %.not.i30 = icmp eq i32 %.val.i29, 0
  br i1 %.not.i30, label %lean_inc.exit23, label %31

31:                                               ; preds = %30
  tail call void @lean_inc_ref_cold(ptr noundef nonnull %0) #5
  br label %lean_inc.exit23

lean_inc.exit23:                                  ; preds = %31, %30, %28, %lean_inc.exit24
  %32 = load ptr, ptr %6, align 8, !tbaa !5
  %33 = ptrtoint ptr %32 to i64
  %34 = and i64 %33, 1
  %.not.i32 = icmp eq i64 %34, 0
  br i1 %.not.i32, label %35, label %lean_inc.exit.i

35:                                               ; preds = %lean_inc.exit23
  %.val.i.i = load i32, ptr %32, align 4, !tbaa !9
  %36 = icmp sgt i32 %.val.i.i, 0
  br i1 %36, label %37, label %39, !prof !12

37:                                               ; preds = %35
  %38 = add nuw i32 %.val.i.i, 1
  store i32 %38, ptr %32, align 4, !tbaa !9
  br label %lean_inc.exit.i

39:                                               ; preds = %35
  %.not.i.i = icmp eq i32 %.val.i.i, 0
  br i1 %.not.i.i, label %lean_inc.exit.i, label %40

40:                                               ; preds = %39
  tail call void @lean_inc_ref_cold(ptr noundef nonnull %32) #5
  br label %lean_inc.exit.i

lean_inc.exit.i:                                  ; preds = %40, %39, %37, %lean_inc.exit23
  tail call void @lean_inc_heartbeat() #5
  %41 = tail call noalias ptr @mi_malloc_small(i64 noundef 32) #5
  %42 = icmp eq ptr %41, null
  br i1 %42, label %43, label %l_Lean_PrettyPrinter_Delaborator_SubExpr_getExpr___rarg.exit

43:                                               ; preds = %lean_inc.exit.i
  tail call void @lean_internal_panic_out_of_memory() #6
  unreachable

l_Lean_PrettyPrinter_Delaborator_SubExpr_getExpr___rarg.exit: ; preds = %lean_inc.exit.i
  %44 = getelementptr inbounds nuw i8, ptr %41, i64 4
  store i32 1, ptr %41, align 4, !tbaa !9
  store i32 -184549344, ptr %44, align 4
  %45 = getelementptr inbounds nuw i8, ptr %41, i64 8
  store ptr @l_Lean_PrettyPrinter_Delaborator_SubExpr_getExpr___rarg___lambda__1, ptr %45, align 8, !tbaa !5
  %46 = getelementptr inbounds nuw i8, ptr %41, i64 16
  store i16 2, ptr %46, align 8, !tbaa !17
  %47 = getelementptr inbounds nuw i8, ptr %41, i64 18
  store i16 1, ptr %47, align 2, !tbaa !17
  %48 = getelementptr inbounds nuw i8, ptr %41, i64 24
  store ptr %0, ptr %48, align 8, !tbaa !5
  %49 = tail call ptr @lean_apply_4(ptr noundef %32, ptr noundef nonnull inttoptr (i64 1 to ptr), ptr noundef nonnull inttoptr (i64 1 to ptr), ptr noundef %1, ptr noundef nonnull %41) #5
  br i1 %.not, label %50, label %lean_inc.exit

50:                                               ; preds = %l_Lean_PrettyPrinter_Delaborator_SubExpr_getExpr___rarg.exit
  %.val.i33 = load i32, ptr %7, align 4, !tbaa !9
  %51 = icmp sgt i32 %.val.i33, 0
  br i1 %51, label %52, label %54, !prof !12

52:                                               ; preds = %50
  %53 = add nuw i32 %.val.i33, 1
  store i32 %53, ptr %7, align 4, !tbaa !9
  br label %lean_inc.exit

54:                                               ; preds = %50
  %.not.i34 = icmp eq i32 %.val.i33, 0
  br i1 %.not.i34, label %lean_inc.exit, label %55

55:                                               ; preds = %54
  tail call void @lean_inc_ref_cold(ptr noundef nonnull %7) #5
  br label %lean_inc.exit

lean_inc.exit:                                    ; preds = %55, %54, %52, %l_Lean_PrettyPrinter_Delaborator_SubExpr_getExpr___rarg.exit
  tail call void @lean_inc_heartbeat() #5
  %56 = tail call noalias ptr @mi_malloc_small(i64 noundef 72) #5
  %57 = icmp eq ptr %56, null
  br i1 %57, label %58, label %lean_alloc_closure.exit

58:                                               ; preds = %lean_inc.exit
  tail call void @lean_internal_panic_out_of_memory() #6
  unreachable

lean_alloc_closure.exit:                          ; preds = %lean_inc.exit
  %59 = getelementptr inbounds nuw i8, ptr %56, i64 4
  store i32 1, ptr %56, align 4, !tbaa !9
  store i32 -184549304, ptr %59, align 4
  %60 = getelementptr inbounds nuw i8, ptr %56, i64 8
  store ptr @l_Lean_PrettyPrinter_Delaborator_SubExpr_withNaryArg___rarg___lambda__3, ptr %60, align 8, !tbaa !5
  %61 = getelementptr inbounds nuw i8, ptr %56, i64 16
  store i16 7, ptr %61, align 8, !tbaa !17
  %62 = getelementptr inbounds nuw i8, ptr %56, i64 18
  store i16 6, ptr %62, align 2, !tbaa !17
  %63 = getelementptr inbounds nuw i8, ptr %56, i64 24
  store ptr %0, ptr %63, align 8, !tbaa !5
  %64 = getelementptr inbounds nuw i8, ptr %56, i64 32
  store ptr %1, ptr %64, align 8, !tbaa !5
  %65 = getelementptr inbounds nuw i8, ptr %56, i64 40
  store ptr %3, ptr %65, align 8, !tbaa !5
  %66 = getelementptr inbounds nuw i8, ptr %56, i64 48
  store ptr %2, ptr %66, align 8, !tbaa !5
  %67 = getelementptr inbounds nuw i8, ptr %56, i64 56
  store ptr %4, ptr %67, align 8, !tbaa !5
  %68 = getelementptr inbounds nuw i8, ptr %56, i64 64
  store ptr %7, ptr %68, align 8, !tbaa !5
  %69 = tail call ptr @lean_apply_4(ptr noundef %7, ptr noundef nonnull inttoptr (i64 1 to ptr), ptr noundef nonnull inttoptr (i64 1 to ptr), ptr noundef %49, ptr noundef nonnull %56) #5
  ret ptr %69
}